target datalayout = "e-m:e-p270:32:32-p271:32:32-p272:64:64-i64:64-i128:128-f80:128-n8:16:32:64-S128"
target triple = "x86_64-pc-linux-gnu"

%struct.Vec_Int_t_ = type { i32, i32, ptr }
%struct.Vec_Wrd_t_ = type { i32, i32, ptr }
%struct.Acb_Ntk_t_ = type { ptr, i32, i32, i32, i8, %struct.Vec_Int_t_, %struct.Vec_Int_t_, %struct.Vec_Int_t_, %struct.Vec_Int_t_, i32, i32, i32, i32, i32, %struct.Vec_Str_t_, %struct.Vec_Int_t_, %struct.Vec_Int_t_, %struct.Vec_Int_t_, %struct.Vec_Int_t_, %struct.Vec_Int_t_, %struct.Vec_Wrd_t_, %struct.Vec_Int_t_, %struct.Vec_Int_t_, %struct.Vec_Int_t_, %struct.Vec_Int_t_, %struct.Vec_Int_t_, %struct.Vec_Int_t_, %struct.Vec_Int_t_, %struct.Vec_Int_t_, %struct.Vec_Int_t_, %struct.Vec_Int_t_, %struct.Vec_Int_t_, %struct.Vec_Int_t_, %struct.Vec_Flt_t_, %struct.Vec_Wec_t_, %struct.Vec_Wec_t_, %struct.Vec_Str_t_, %struct.Vec_Int_t_, ptr, %struct.Vec_Int_t_, %struct.Vec_Int_t_, %struct.Vec_Int_t_, %struct.Vec_Int_t_ }
%struct.Vec_Flt_t_ = type { i32, i32, ptr }
%struct.Vec_Wec_t_ = type { i32, i32, ptr }
%struct.Vec_Str_t_ = type { i32, i32, ptr }

; Function Attrs: nounwind uwtable
define void @Acb_NtkRunTest(ptr noundef %0, i32 noundef %1, i32 noundef %2) #0 {
  %4 = alloca ptr, align 8
  %5 = alloca i32, align 4
  %6 = alloca i32, align 4
  %7 = alloca i32, align 4
  %8 = alloca ptr, align 8
  %9 = alloca ptr, align 8
  %10 = alloca ptr, align 8
  %11 = alloca ptr, align 8
  %12 = alloca ptr, align 8
  %13 = alloca ptr, align 8
  store ptr %0, ptr %4, align 8
  store i32 %1, ptr %5, align 4
  store i32 %2, ptr %6, align 4
  store i32 1, ptr %7, align 4
  store ptr null, ptr %8, align 8
  store ptr null, ptr %9, align 8
  store ptr null, ptr %10, align 8
  store ptr null, ptr %11, align 8
  %14 = load ptr, ptr %4, align 8
  %15 = getelementptr inbounds ptr, ptr %14, i64 0
  %16 = load ptr, ptr %15, align 8
  %17 = call ptr @Acb_VerilogSimpleRead(ptr noundef %16, ptr noundef null)
  store ptr %17, ptr %12, align 8
  %18 = load ptr, ptr %4, align 8
  %19 = getelementptr inbounds ptr, ptr %18, i64 1
  %20 = load ptr, ptr %19, align 8
  %21 = call ptr @Acb_VerilogSimpleRead(ptr noundef %20, ptr noundef null)
  store ptr %21, ptr %13, align 8
  %22 = load ptr, ptr %12, align 8
  %23 = icmp ne ptr %22, null
  br i1 %23, label %24, label %27

24:                                               ; preds = %3
  %25 = load ptr, ptr %13, align 8
  %26 = icmp ne ptr %25, null
  br i1 %26, label %28, label %27

27:                                               ; preds = %24, %3
  br label %67

28:                                               ; preds = %24
  %29 = load ptr, ptr %12, align 8
  %30 = load ptr, ptr %13, align 8
  %31 = call i32 @Acb_NtkCheckPiOrder(ptr noundef %29, ptr noundef %30)
  %32 = load ptr, ptr %12, align 8
  call void @Acb_NtkPrintCecStats(ptr noundef %32)
  %33 = load ptr, ptr %13, align 8
  call void @Acb_NtkPrintCecStats(ptr noundef %33)
  %34 = load ptr, ptr %12, align 8
  %35 = call ptr @Acb_NtkGiaDeriveDual(ptr noundef %34)
  store ptr %35, ptr %9, align 8
  %36 = load ptr, ptr %13, align 8
  %37 = call ptr @Acb_NtkGiaDeriveDual(ptr noundef %36)
  store ptr %37, ptr %10, align 8
  %38 = load ptr, ptr %9, align 8
  %39 = load ptr, ptr %10, align 8
  %40 = call ptr @Acb_NtkGiaDeriveMiter(ptr noundef %38, ptr noundef %39, i32 noundef 2)
  store ptr %40, ptr %11, align 8
  %41 = load i32, ptr %7, align 4
  %42 = icmp ne i32 %41, 0
  br i1 %42, label %43, label %57

43:                                               ; preds = %28
  %44 = load ptr, ptr %11, align 8
  %45 = call ptr @Acb_NtkSolve(ptr noundef %44)
  store ptr %45, ptr %8, align 8
  %46 = load ptr, ptr %4, align 8
  %47 = getelementptr inbounds ptr, ptr %46, i64 2
  %48 = load ptr, ptr %47, align 8
  %49 = load ptr, ptr %12, align 8
  %50 = load ptr, ptr %8, align 8
  call void @Acb_OutputFile(ptr noundef %48, ptr noundef %49, ptr noundef %50)
  %51 = load ptr, ptr %8, align 8
  %52 = icmp ne ptr %51, null
  br i1 %52, label %53, label %55

53:                                               ; preds = %43
  %54 = load ptr, ptr %8, align 8
  call void @free(ptr noundef %54) #10
  store ptr null, ptr %8, align 8
  br label %56

55:                                               ; preds = %43
  br label %56

56:                                               ; preds = %55, %53
  br label %57

57:                                               ; preds = %56, %28
  %58 = load ptr, ptr %11, align 8
  call void @Gia_ManStop(ptr noundef %58)
  %59 = load ptr, ptr %9, align 8
  call void @Gia_ManStop(ptr noundef %59)
  %60 = load ptr, ptr %10, align 8
  call void @Gia_ManStop(ptr noundef %60)
  %61 = load ptr, ptr %12, align 8
  %62 = getelementptr inbounds %struct.Acb_Ntk_t_, ptr %61, i32 0, i32 0
  %63 = load ptr, ptr %62, align 8
  call void @Acb_ManFree(ptr noundef %63)
  %64 = load ptr, ptr %13, align 8
  %65 = getelementptr inbounds %struct.Acb_Ntk_t_, ptr %64, i32 0, i32 0
  %66 = load ptr, ptr %65, align 8
  call void @Acb_ManFree(ptr noundef %66)
  br label %67

67:                                               ; preds = %57, %27
  ret void
}