; Function Attrs: nounwind uwtable
define void @Acb_NtkRunTest(ptr noundef readonly captures(none) %0, i32 noundef %1, i32 noundef %2) local_unnamed_addr #0 {
  %4 = load ptr, ptr %0, align 8
  %5 = tail call ptr @Acb_VerilogSimpleRead(ptr noundef %4, ptr noundef null) #18
  %6 = getelementptr inbounds nuw i8, ptr %0, i64 8
  %7 = load ptr, ptr %6, align 8
  %8 = tail call ptr @Acb_VerilogSimpleRead(ptr noundef %7, ptr noundef null) #18
  %9 = icmp ne ptr %5, null
  %10 = icmp ne ptr %8, null
  %or.cond = select i1 %9, i1 %10, i1 false
  br i1 %or.cond, label %11, label %23

11:                                               ; preds = %3
  %12 = tail call i32 @Acb_NtkCheckPiOrder(ptr noundef nonnull %5, ptr noundef nonnull %8)
  tail call void @Acb_NtkPrintCecStats(ptr noundef nonnull %5)
  tail call void @Acb_NtkPrintCecStats(ptr noundef nonnull %8)
  %13 = tail call ptr @Acb_NtkGiaDeriveDual(ptr noundef nonnull %5)
  %14 = tail call ptr @Acb_NtkGiaDeriveDual(ptr noundef nonnull %8)
  %15 = tail call ptr @Acb_NtkGiaDeriveMiter(ptr noundef %13, ptr noundef %14, i32 noundef 2)
  %16 = tail call ptr @Acb_NtkSolve(ptr noundef %15)
  %17 = getelementptr inbounds nuw i8, ptr %0, i64 16
  %18 = load ptr, ptr %17, align 8
  tail call void @Acb_OutputFile(ptr noundef %18, ptr noundef nonnull %5, ptr noundef %16)
  %.not = icmp eq ptr %16, null
  br i1 %.not, label %20, label %19

19:                                               ; preds = %11
  tail call void @free(ptr noundef nonnull %16) #18
  br label %20

20:                                               ; preds = %19, %11
  tail call void @Gia_ManStop(ptr noundef %15) #18
  tail call void @Gia_ManStop(ptr noundef %13) #18
  tail call void @Gia_ManStop(ptr noundef %14) #18
  %21 = load ptr, ptr %5, align 8
  tail call fastcc void @Acb_ManFree(ptr noundef %21)
  %22 = load ptr, ptr %8, align 8
  tail call fastcc void @Acb_ManFree(ptr noundef %22)
  br label %23

23:                                               ; preds = %3, %20
  ret void
}